target datalayout = "e-m:e-p270:32:32-p271:32:32-p272:64:64-i64:64-i128:128-f80:128-n8:16:32:64-S128"
target triple = "x86_64-pc-linux-gnu"

%"class.std::__cxx11::basic_string" = type { %"struct.std::__cxx11::basic_string<char>::_Alloc_hider", i64, %union.anon }
%"struct.std::__cxx11::basic_string<char>::_Alloc_hider" = type { ptr }
%union.anon = type { i64, [8 x i8] }
%struct.PJconsts = type <{ ptr, ptr, ptr, ptr, ptr, ptr, ptr, ptr, ptr, ptr, ptr, ptr, i32, [4 x i8], ptr, ptr, ptr, ptr, ptr, ptr, ptr, ptr, double, double, double, double, double, double, double, double, double, double, double, double, double, double, double, double, double, double, double, double, double, double, i32, i32, i32, i32, i32, i32, i32, i32, i32, i32, i32, [4 x i8], ptr, ptr, ptr, ptr, ptr, ptr, double, double, double, double, double, double, double, double, double, double, double, i32, [4 x i8], [7 x double], i32, [4 x i8], ptr, ptr, double, double, i32, [4 x i8], %"class.std::shared_ptr", i8, [7 x i8], double, i8, [7 x i8], %"class.std::__cxx11::basic_string", %"class.std::__cxx11::basic_string", %"class.std::__cxx11::basic_string", i8, [7 x i8], %"class.std::vector.71", i32, [4 x i8], %"class.std::vector.76", i32, i8, i8, i8, i8 }>
%"class.std::shared_ptr" = type { %"class.std::__shared_ptr" }
%"class.std::__shared_ptr" = type { ptr, %"class.std::__shared_count" }
%"class.std::__shared_count" = type { ptr }
%"class.std::vector.71" = type { %"struct.std::_Vector_base.72" }
%"struct.std::_Vector_base.72" = type { %"struct.std::_Vector_base<osgeo::proj::operation::GridDescription, std::allocator<osgeo::proj::operation::GridDescription>>::_Vector_impl" }
%"struct.std::_Vector_base<osgeo::proj::operation::GridDescription, std::allocator<osgeo::proj::operation::GridDescription>>::_Vector_impl" = type { %"struct.std::_Vector_base<osgeo::proj::operation::GridDescription, std::allocator<osgeo::proj::operation::GridDescription>>::_Vector_impl_data" }
%"struct.std::_Vector_base<osgeo::proj::operation::GridDescription, std::allocator<osgeo::proj::operation::GridDescription>>::_Vector_impl_data" = type { ptr, ptr, ptr }
%"class.std::vector.76" = type { %"struct.std::_Vector_base.77" }
%"struct.std::_Vector_base.77" = type { %"struct.std::_Vector_base<PJCoordOperation, std::allocator<PJCoordOperation>>::_Vector_impl" }
%"struct.std::_Vector_base<PJCoordOperation, std::allocator<PJCoordOperation>>::_Vector_impl" = type { %"struct.std::_Vector_base<PJCoordOperation, std::allocator<PJCoordOperation>>::_Vector_impl_data" }
%"struct.std::_Vector_base<PJCoordOperation, std::allocator<PJCoordOperation>>::_Vector_impl_data" = type { ptr, ptr, ptr }
%"struct.(anonymous namespace)::defmodelData" = type { %"class.std::unique_ptr.81", %"struct.(anonymous namespace)::EvaluatorIface" }
%"class.std::unique_ptr.81" = type { %"struct.std::__uniq_ptr_data.82" }
%"struct.std::__uniq_ptr_data.82" = type { %"class.std::__uniq_ptr_impl.83" }
%"class.std::__uniq_ptr_impl.83" = type { %"class.std::tuple.84" }
%"class.std::tuple.84" = type { %"struct.std::_Tuple_impl.85" }
%"struct.std::_Tuple_impl.85" = type { %"struct.std::_Head_base.88" }
%"struct.std::_Head_base.88" = type { ptr }
%"struct.(anonymous namespace)::EvaluatorIface" = type { ptr, ptr }
%union.PJ_COORD = type { [4 x double] }
%struct.PJ_XYZT = type { double, double, double, double }

; Function Attrs: mustprogress nounwind uwtable
define internal noundef nonnull align 8 dereferenceable(8) ptr @_ZNSt10_Head_baseILm0EPN16DeformationModel9EvaluatorIN12_GLOBAL__N_14GridENS2_7GridSetENS2_14EvaluatorIfaceEEELb0EE7_M_headERKS8_(ptr noundef nonnull align 8 dereferenceable(8) %0) #0 align 2 {
  %2 = alloca ptr, align 8
  store ptr %0, ptr %2, align 8
  %3 = load ptr, ptr %2, align 8
  %4 = getelementptr inbounds %"struct.std::_Head_base.88", ptr %3, i32 0, i32 0
  ret ptr %4
}

; Function Attrs: mustprogress nounwind uwtable
define internal noundef nonnull align 8 dereferenceable(8) ptr @_ZNSt11_Tuple_implILm0EJPN16DeformationModel9EvaluatorIN12_GLOBAL__N_14GridENS2_7GridSetENS2_14EvaluatorIfaceEEESt14default_deleteIS6_EEE7_M_headERKSA_(ptr noundef nonnull align 8 dereferenceable(8) %0) #0 align 2 {
  %2 = alloca ptr, align 8
  store ptr %0, ptr %2, align 8
  %3 = load ptr, ptr %2, align 8
  %4 = call noundef nonnull align 8 dereferenceable(8) ptr @_ZNSt10_Head_baseILm0EPN16DeformationModel9EvaluatorIN12_GLOBAL__N_14GridENS2_7GridSetENS2_14EvaluatorIfaceEEELb0EE7_M_headERKS8_(ptr noundef nonnull align 8 dereferenceable(8) %3) #5
  ret ptr %4
}

; Function Attrs: mustprogress nounwind uwtable
define internal noundef nonnull align 8 dereferenceable(8) ptr @_ZSt12__get_helperILm0EPN16DeformationModel9EvaluatorIN12_GLOBAL__N_14GridENS2_7GridSetENS2_14EvaluatorIfaceEEEJSt14default_deleteIS6_EEERKT0_RKSt11_Tuple_implIXT_EJSA_DpT1_EE(ptr noundef nonnull align 8 dereferenceable(8) %0) #0 {
  %2 = alloca ptr, align 8
  store ptr %0, ptr %2, align 8
  %3 = load ptr, ptr %2, align 8
  %4 = call noundef nonnull align 8 dereferenceable(8) ptr @_ZNSt11_Tuple_implILm0EJPN16DeformationModel9EvaluatorIN12_GLOBAL__N_14GridENS2_7GridSetENS2_14EvaluatorIfaceEEESt14default_deleteIS6_EEE7_M_headERKSA_(ptr noundef nonnull align 8 dereferenceable(8) %3) #5
  ret ptr %4
}

; Function Attrs: mustprogress nounwind uwtable
define internal noundef nonnull align 8 dereferenceable(8) ptr @_ZSt3getILm0EJPN16DeformationModel9EvaluatorIN12_GLOBAL__N_14GridENS2_7GridSetENS2_14EvaluatorIfaceEEESt14default_deleteIS6_EEERKNSt13tuple_elementIXT_ESt5tupleIJDpT0_EEE4typeERKSE_(ptr noundef nonnull align 8 dereferenceable(8) %0) #0 {
  %2 = alloca ptr, align 8
  store ptr %0, ptr %2, align 8
  %3 = load ptr, ptr %2, align 8
  %4 = call noundef nonnull align 8 dereferenceable(8) ptr @_ZSt12__get_helperILm0EPN16DeformationModel9EvaluatorIN12_GLOBAL__N_14GridENS2_7GridSetENS2_14EvaluatorIfaceEEEJSt14default_deleteIS6_EEERKT0_RKSt11_Tuple_implIXT_EJSA_DpT1_EE(ptr noundef nonnull align 8 dereferenceable(8) %3) #5
  ret ptr %4
}

; Function Attrs: mustprogress nounwind uwtable
define internal noundef ptr @_ZNKSt15__uniq_ptr_implIN16DeformationModel9EvaluatorIN12_GLOBAL__N_14GridENS2_7GridSetENS2_14EvaluatorIfaceEEESt14default_deleteIS6_EE6_M_ptrEv(ptr noundef nonnull align 8 dereferenceable(8) %0) #0 align 2 {
  %2 = alloca ptr, align 8
  store ptr %0, ptr %2, align 8
  %3 = load ptr, ptr %2, align 8
  %4 = getelementptr inbounds %"class.std::__uniq_ptr_impl.83", ptr %3, i32 0, i32 0
  %5 = call noundef nonnull align 8 dereferenceable(8) ptr @_ZSt3getILm0EJPN16DeformationModel9EvaluatorIN12_GLOBAL__N_14GridENS2_7GridSetENS2_14EvaluatorIfaceEEESt14default_deleteIS6_EEERKNSt13tuple_elementIXT_ESt5tupleIJDpT0_EEE4typeERKSE_(ptr noundef nonnull align 8 dereferenceable(8) %4) #5
  %6 = load ptr, ptr %5, align 8
  ret ptr %6
}

; Function Attrs: mustprogress nounwind uwtable
define internal noundef ptr @_ZNKSt10unique_ptrIN16DeformationModel9EvaluatorIN12_GLOBAL__N_14GridENS2_7GridSetENS2_14EvaluatorIfaceEEESt14default_deleteIS6_EE3getEv(ptr noundef nonnull align 8 dereferenceable(8) %0) #0 align 2 {
  %2 = alloca ptr, align 8
  store ptr %0, ptr %2, align 8
  %3 = load ptr, ptr %2, align 8
  %4 = getelementptr inbounds %"class.std::unique_ptr.81", ptr %3, i32 0, i32 0
  %5 = call noundef ptr @_ZNKSt15__uniq_ptr_implIN16DeformationModel9EvaluatorIN12_GLOBAL__N_14GridENS2_7GridSetENS2_14EvaluatorIfaceEEESt14default_deleteIS6_EE6_M_ptrEv(ptr noundef nonnull align 8 dereferenceable(8) %4) #5
  ret ptr %5
}

; Function Attrs: mustprogress uwtable
define internal noundef zeroext i1 @_ZN16DeformationModel9EvaluatorIN12_GLOBAL__N_14GridENS1_7GridSetENS1_14EvaluatorIfaceEE7forwardERS4_ddddRdS7_S7_(ptr noundef nonnull align 8 dereferenceable(64) %0, ptr noundef nonnull align 8 dereferenceable(16) %1, double noundef %2, double noundef %3, double noundef %4, double noundef %5, ptr noundef nonnull align 8 dereferenceable(8) %6, ptr noundef nonnull align 8 dereferenceable(8) %7, ptr noundef nonnull align 8 dereferenceable(8) %8) #6 align 2 {
  %10 = alloca ptr, align 8
  %11 = alloca ptr, align 8
  %12 = alloca double, align 8
  %13 = alloca double, align 8
  %14 = alloca double, align 8
  %15 = alloca double, align 8
  %16 = alloca ptr, align 8
  %17 = alloca ptr, align 8
  %18 = alloca ptr, align 8
  store ptr %0, ptr %10, align 8
  store ptr %1, ptr %11, align 8
  store double %2, ptr %12, align 8
  store double %3, ptr %13, align 8
  store double %4, ptr %14, align 8
  store double %5, ptr %15, align 8
  store ptr %6, ptr %16, align 8
  store ptr %7, ptr %17, align 8
  store ptr %8, ptr %18, align 8
  %19 = load ptr, ptr %10, align 8
  %20 = load ptr, ptr %11, align 8
  %21 = load double, ptr %12, align 8
  %22 = load double, ptr %13, align 8
  %23 = load double, ptr %14, align 8
  %24 = load double, ptr %15, align 8
  %25 = load ptr, ptr %16, align 8
  %26 = load ptr, ptr %17, align 8
  %27 = load ptr, ptr %18, align 8
  %28 = call noundef zeroext i1 @_ZN16DeformationModel9EvaluatorIN12_GLOBAL__N_14GridENS1_7GridSetENS1_14EvaluatorIfaceEE7forwardERS4_ddddbRdS7_S7_(ptr noundef nonnull align 8 dereferenceable(64) %19, ptr noundef nonnull align 8 dereferenceable(16) %20, double noundef %21, double noundef %22, double noundef %23, double noundef %24, i1 noundef zeroext false, ptr noundef nonnull align 8 dereferenceable(8) %25, ptr noundef nonnull align 8 dereferenceable(8) %26, ptr noundef nonnull align 8 dereferenceable(8) %27)
  ret i1 %28
}

; Function Attrs: mustprogress nounwind uwtable
define internal noundef ptr @_ZNKSt10unique_ptrIN16DeformationModel9EvaluatorIN12_GLOBAL__N_14GridENS2_7GridSetENS2_14EvaluatorIfaceEEESt14default_deleteIS6_EEptEv(ptr noundef nonnull align 8 dereferenceable(8) %0) #0 align 2 {
  %2 = alloca ptr, align 8
  store ptr %0, ptr %2, align 8
  %3 = load ptr, ptr %2, align 8
  %4 = call noundef ptr @_ZNKSt10unique_ptrIN16DeformationModel9EvaluatorIN12_GLOBAL__N_14GridENS2_7GridSetENS2_14EvaluatorIfaceEEESt14default_deleteIS6_EE3getEv(ptr noundef nonnull align 8 dereferenceable(8) %3) #5
  ret ptr %4
}

; Function Attrs: mustprogress uwtable
define internal void @_ZL10forward_4dR8PJ_COORDP8PJconsts(ptr noundef nonnull align 8 dereferenceable(32) %0, ptr noundef %1) #6 {
  %3 = alloca ptr, align 8
  %4 = alloca ptr, align 8
  %5 = alloca ptr, align 8
  %6 = alloca %union.PJ_COORD, align 8
  store ptr %0, ptr %3, align 8
  store ptr %1, ptr %4, align 8
  %7 = load ptr, ptr %4, align 8
  %8 = getelementptr inbounds %struct.PJconsts, ptr %7, i32 0, i32 11
  %9 = load ptr, ptr %8, align 8
  store ptr %9, ptr %5, align 8
  %10 = load ptr, ptr %5, align 8
  %11 = getelementptr inbounds %"struct.(anonymous namespace)::defmodelData", ptr %10, i32 0, i32 0
  %12 = call noundef ptr @_ZNKSt10unique_ptrIN16DeformationModel9EvaluatorIN12_GLOBAL__N_14GridENS2_7GridSetENS2_14EvaluatorIfaceEEESt14default_deleteIS6_EEptEv(ptr noundef nonnull align 8 dereferenceable(8) %11) #5
  %13 = load ptr, ptr %5, align 8
  %14 = getelementptr inbounds %"struct.(anonymous namespace)::defmodelData", ptr %13, i32 0, i32 1
  %15 = load ptr, ptr %3, align 8
  %16 = getelementptr inbounds %struct.PJ_XYZT, ptr %15, i32 0, i32 0
  %17 = load double, ptr %16, align 8
  %18 = load ptr, ptr %3, align 8
  %19 = getelementptr inbounds %struct.PJ_XYZT, ptr %18, i32 0, i32 1
  %20 = load double, ptr %19, align 8
  %21 = load ptr, ptr %3, align 8
  %22 = getelementptr inbounds %struct.PJ_XYZT, ptr %21, i32 0, i32 2
  %23 = load double, ptr %22, align 8
  %24 = load ptr, ptr %3, align 8
  %25 = getelementptr inbounds %struct.PJ_XYZT, ptr %24, i32 0, i32 3
  %26 = load double, ptr %25, align 8
  %27 = load ptr, ptr %3, align 8
  %28 = getelementptr inbounds %struct.PJ_XYZT, ptr %27, i32 0, i32 0
  %29 = load ptr, ptr %3, align 8
  %30 = getelementptr inbounds %struct.PJ_XYZT, ptr %29, i32 0, i32 1
  %31 = load ptr, ptr %3, align 8
  %32 = getelementptr inbounds %struct.PJ_XYZT, ptr %31, i32 0, i32 2
  %33 = call noundef zeroext i1 @_ZN16DeformationModel9EvaluatorIN12_GLOBAL__N_14GridENS1_7GridSetENS1_14EvaluatorIfaceEE7forwardERS4_ddddRdS7_S7_(ptr noundef nonnull align 8 dereferenceable(64) %12, ptr noundef nonnull align 8 dereferenceable(16) %14, double noundef %17, double noundef %20, double noundef %23, double noundef %26, ptr noundef nonnull align 8 dereferenceable(8) %28, ptr noundef nonnull align 8 dereferenceable(8) %30, ptr noundef nonnull align 8 dereferenceable(8) %32)
  br i1 %33, label %36, label %34

34:                                               ; preds = %2
  call void @_Z16proj_coord_errorv(ptr dead_on_unwind writable sret(%union.PJ_COORD) align 8 %6)
  %35 = load ptr, ptr %3, align 8
  call void @llvm.memcpy.p0.p0.i64(ptr align 8 %35, ptr align 8 %6, i64 32, i1 false)
  br label %36

36:                                               ; preds = %34, %2
  ret void
}