; Function Attrs: mustprogress uwtable
define internal void @_ZL10forward_4dR8PJ_COORDP8PJconsts(ptr nocapture noundef nonnull align 8 dereferenceable(32) %0, ptr nocapture noundef readonly %1) #6 {
  %3 = alloca %union.PJ_COORD, align 8
  %4 = getelementptr inbounds i8, ptr %1, i64 88
  %5 = load ptr, ptr %4, align 8
  %.val = load ptr, ptr %5, align 8
  %6 = getelementptr inbounds i8, ptr %5, i64 8
  %7 = load double, ptr %0, align 8
  %8 = getelementptr inbounds i8, ptr %0, i64 8
  %9 = load double, ptr %8, align 8
  %10 = getelementptr inbounds i8, ptr %0, i64 16
  %11 = load double, ptr %10, align 8
  %12 = getelementptr inbounds i8, ptr %0, i64 24
  %13 = load double, ptr %12, align 8
  %14 = tail call fastcc noundef zeroext i1 @_ZN16DeformationModel9EvaluatorIN12_GLOBAL__N_14GridENS1_7GridSetENS1_14EvaluatorIfaceEE7forwardERS4_ddddbRdS7_S7_(ptr noundef nonnull align 8 dereferenceable(64) %.val, ptr noundef nonnull align 8 dereferenceable(16) %6, double noundef %7, double noundef %9, double noundef %11, double noundef %13, i1 noundef zeroext false, ptr noundef nonnull align 8 dereferenceable(8) %0, ptr noundef nonnull align 8 dereferenceable(8) %8, ptr noundef nonnull align 8 dereferenceable(8) %10)
  br i1 %14, label %16, label %15

15:                                               ; preds = %2
  call void @_Z16proj_coord_errorv(ptr dead_on_unwind nonnull writable sret(%union.PJ_COORD) align 8 %3)
  call void @llvm.memcpy.p0.p0.i64(ptr noundef nonnull align 8 dereferenceable(32) %0, ptr noundef nonnull align 8 dereferenceable(32) %3, i64 32, i1 false)
  br label %16

16:                                               ; preds = %15, %2
  ret void
}